; Function Attrs: mustprogress nofree norecurse nosync nounwind willreturn memory(read, inaccessiblemem: none) uwtable
define noundef double @_ZN3gmx34getDeviationFromPointAlongGridAxisERKNS_8BiasGridEiid(ptr nocapture noundef nonnull readonly align 8 dereferenceable(48) %0, i32 noundef %1, i32 noundef %2, double noundef %3) local_unnamed_addr #0 {
  %5 = sext i32 %2 to i64
  %6 = load ptr, ptr %0, align 8
  %7 = getelementptr inbounds %"struct.gmx::GridPoint", ptr %6, i64 %5
  %8 = sext i32 %1 to i64
  %9 = getelementptr inbounds [4 x double], ptr %7, i64 0, i64 %8
  %10 = load double, ptr %9, align 8
  %11 = getelementptr inbounds i8, ptr %0, i64 24
  %12 = load ptr, ptr %11, align 8
  %13 = getelementptr inbounds %"class.gmx::GridAxis", ptr %12, i64 %8, i32 2
  %14 = load double, ptr %13, align 8
  %15 = fsub double %3, %10
  %16 = fcmp ogt double %14, 0.000000e+00
  br i1 %16, label %17, label %_ZN3gmx12_GLOBAL__N_120getDeviationPeriodicEddd.exit

17:                                               ; preds = %4
  %18 = fmul double %14, 5.000000e-01
  %19 = fcmp ugt double %18, %15
  br i1 %19, label %22, label %20

20:                                               ; preds = %17
  %21 = fsub double %15, %14
  br label %_ZN3gmx12_GLOBAL__N_120getDeviationPeriodicEddd.exit

22:                                               ; preds = %17
  %23 = fneg double %18
  %24 = fcmp olt double %15, %23
  br i1 %24, label %25, label %_ZN3gmx12_GLOBAL__N_120getDeviationPeriodicEddd.exit

25:                                               ; preds = %22
  %26 = fadd double %15, %14
  br label %_ZN3gmx12_GLOBAL__N_120getDeviationPeriodicEddd.exit

_ZN3gmx12_GLOBAL__N_120getDeviationPeriodicEddd.exit: ; preds = %4, %20, %22, %25
  %.0.i = phi double [ %15, %4 ], [ %21, %20 ], [ %26, %25 ], [ %15, %22 ]
  ret double %.0.i
}